target datalayout = "e-m:e-p270:32:32-p271:32:32-p272:64:64-i64:64-i128:128-f80:128-n8:16:32:64-S128"
target triple = "x86_64-pc-linux-gnu"

%class.QString = type { %struct.QArrayDataPointer }
%struct.QArrayDataPointer = type { ptr, ptr, i64 }
%class.LteRlcGraphDialog = type <{ %class.WiresharkDialog.base, [3 x i8], ptr, i8, [7 x i8], ptr, %class.QPoint, ptr, %struct.rlc_graph, %class.QMultiMap, %class.QMap, ptr, ptr, ptr, ptr, ptr, i32, [4 x i8] }>
%class.WiresharkDialog.base = type <{ %class.GeometryStateDialog, ptr, i8, [7 x i8], %class.QString, %class.QList, i32, i8 }>
%class.GeometryStateDialog = type { %class.QDialog, %class.QString }
%class.QDialog = type { %class.QWidget }
%class.QWidget = type { %class.QObject, %class.QPaintDevice.base, ptr }
%class.QObject = type { ptr, %class.QScopedPointer }
%class.QScopedPointer = type { ptr }
%class.QPaintDevice.base = type <{ ptr, i16 }>
%class.QList = type { %struct.QArrayDataPointer.0 }
%struct.QArrayDataPointer.0 = type { ptr, ptr, i64 }
%class.QPoint = type { i32, i32 }
%struct.rlc_graph = type { ptr, ptr, i32, i8, i16, i16, i16, i8, i8 }
%class.QMultiMap = type { %"class.QtPrivate::QExplicitlySharedDataPointerV2" }
%"class.QtPrivate::QExplicitlySharedDataPointerV2" = type { ptr }
%class.QMap = type { %"class.QtPrivate::QExplicitlySharedDataPointerV2.1" }
%"class.QtPrivate::QExplicitlySharedDataPointerV2.1" = type { ptr }
%class.Ui_LteRlcGraphDialog = type { ptr, ptr, ptr, ptr, ptr, ptr, ptr, ptr, ptr, ptr, ptr, ptr, ptr, ptr, ptr, ptr, ptr, ptr, ptr, ptr, ptr, ptr, ptr, ptr, ptr, ptr, ptr, ptr, ptr, ptr, ptr, ptr }
%class.QCustomPlot = type <{ %class.QWidget, ptr, ptr, ptr, ptr, ptr, %class.QRect, double, ptr, i8, [7 x i8], %class.QList.15, %class.QList.19, %class.QList.23, %class.QList.27, %class.QFlags.14, %class.QFlags.14, %class.QFlags.31, i32, i8, [7 x i8], %class.QBrush, %class.QPixmap, %class.QPixmap, i8, [3 x i8], i32, ptr, %class.QFlags.35, i32, i32, [4 x i8], ptr, i8, [7 x i8], %class.QList.36, %class.QPoint, i8, [7 x i8], %class.QPointer, %class.QPointer, %class.QVariant, %class.QVariant, i8, i8, [6 x i8], double, double, i32, %class.QFlags.14, i8, [7 x i8] }>
%class.QRect = type { i32, i32, i32, i32 }
%class.QList.15 = type { %struct.QArrayDataPointer.18 }
%struct.QArrayDataPointer.18 = type { ptr, ptr, i64 }
%class.QList.19 = type { %struct.QArrayDataPointer.22 }
%struct.QArrayDataPointer.22 = type { ptr, ptr, i64 }
%class.QList.23 = type { %struct.QArrayDataPointer.26 }
%struct.QArrayDataPointer.26 = type { ptr, ptr, i64 }
%class.QList.27 = type { %struct.QArrayDataPointer.30 }
%struct.QArrayDataPointer.30 = type { ptr, ptr, i64 }
%class.QFlags.31 = type { i32 }
%class.QBrush = type { %"class.std::unique_ptr" }
%"class.std::unique_ptr" = type { %"struct.std::__uniq_ptr_data" }
%"struct.std::__uniq_ptr_data" = type { %"class.std::__uniq_ptr_impl" }
%"class.std::__uniq_ptr_impl" = type { %"class.std::tuple" }
%"class.std::tuple" = type { %"struct.std::_Tuple_impl" }
%"struct.std::_Tuple_impl" = type { %"struct.std::_Head_base.33" }
%"struct.std::_Head_base.33" = type { ptr }
%class.QPixmap = type { %class.QPaintDevice.base, %class.QExplicitlySharedDataPointer.34 }
%class.QExplicitlySharedDataPointer.34 = type { ptr }
%class.QFlags.35 = type { i32 }
%class.QList.36 = type { %struct.QArrayDataPointer.39 }
%struct.QArrayDataPointer.39 = type { ptr, ptr, i64 }
%class.QPointer = type { %class.QWeakPointer }
%class.QWeakPointer = type { ptr, ptr }
%class.QVariant = type { %"struct.QVariant::Private" }
%"struct.QVariant::Private" = type { %union.anon, i64 }
%union.anon = type { ptr, [16 x i8] }
%class.QFlags.14 = type { i32 }
%class.QFont = type <{ %class.QExplicitlySharedDataPointer, i32, [4 x i8] }>
%class.QExplicitlySharedDataPointer = type { ptr }
%struct.QLatin1Char = type { i8 }
%class.QPen = type { ptr }
%class.QColor = type <{ i32, %"union.QColor::CT", [2 x i8] }>
%"union.QColor::CT" = type { %struct.anon }
%struct.anon = type { i16, i16, i16, i16, i16 }
%class.QList.6 = type { %struct.QArrayDataPointer.9 }
%struct.QArrayDataPointer.9 = type { ptr, ptr, i64 }
%class.QCPLayerable.base = type <{ %class.QObject, i8, [7 x i8], ptr, %class.QPointer, ptr, i8 }>
%class.QCPRange = type { double, double }
%class.QCPAxis = type { %class.QCPLayerable.base, i32, ptr, i32, i32, %class.QFlags, %class.QFlags, %class.QPen, %class.QPen, %class.QString, %class.QFont, %class.QFont, %class.QColor, %class.QColor, i8, [7 x i8], %class.QFont, %class.QFont, %class.QColor, %class.QColor, i32, %struct.QLatin1Char, i8, i8, i8, %class.QPen, %class.QPen, %class.QPen, %class.QPen, %class.QCPRange, i8, i32, ptr, ptr, %class.QSharedPointer, %class.QList.6, %class.QList.10, %class.QList.6, i8, i32, i8, %class.QCPRange, %class.QFlags.14, %class.QFlags.14 }
%class.QFlags = type { i32 }
%class.QSharedPointer = type { ptr, ptr }
%class.QList.10 = type { %struct.QArrayDataPointer.13 }
%struct.QArrayDataPointer.13 = type { ptr, ptr, i64 }
%class.QCPLayoutElement = type { %class.QCPLayerable.base, ptr, %class.QSize, %class.QSize, i32, %class.QRect, %class.QRect, %class.QMargins, %class.QMargins, %class.QFlags.66, %class.QHash }
%class.QSize = type { i32, i32 }
%class.QMargins = type { i32, i32, i32, i32 }
%class.QFlags.66 = type { i32 }
%class.QHash = type { ptr }

; Function Attrs: mustprogress nounwind uwtable
define linkonce_odr noundef i32 @_ZNK5QRect6heightEv(ptr noundef nonnull align 4 dereferenceable(16) %0) #3 comdat align 2 {
  %2 = alloca ptr, align 8
  store ptr %0, ptr %2, align 8
  %3 = load ptr, ptr %2, align 8
  %4 = getelementptr inbounds %class.QRect, ptr %3, i32 0, i32 3
  %5 = load i32, ptr %4, align 4
  %6 = getelementptr inbounds %class.QRect, ptr %3, i32 0, i32 1
  %7 = load i32, ptr %6, align 4
  %8 = sub i32 %5, %7
  %9 = add i32 %8, 1
  ret i32 %9
}

; Function Attrs: mustprogress nounwind uwtable
define linkonce_odr noundef i32 @_ZNK5QRect5widthEv(ptr noundef nonnull align 4 dereferenceable(16) %0) #3 comdat align 2 {
  %2 = alloca ptr, align 8
  store ptr %0, ptr %2, align 8
  %3 = load ptr, ptr %2, align 8
  %4 = getelementptr inbounds %class.QRect, ptr %3, i32 0, i32 2
  %5 = load i32, ptr %4, align 4
  %6 = getelementptr inbounds %class.QRect, ptr %3, i32 0, i32 0
  %7 = load i32, ptr %6, align 4
  %8 = sub i32 %5, %7
  %9 = add i32 %8, 1
  ret i32 %9
}

; Function Attrs: mustprogress nounwind uwtable
define linkonce_odr noundef i32 @_ZNK11QCPAxisRect6heightEv(ptr noundef nonnull align 8 dereferenceable(432) %0) #3 comdat align 2 {
  %2 = alloca ptr, align 8
  store ptr %0, ptr %2, align 8
  %3 = load ptr, ptr %2, align 8
  %4 = getelementptr inbounds %class.QCPLayoutElement, ptr %3, i32 0, i32 5
  %5 = call noundef i32 @_ZNK5QRect6heightEv(ptr noundef nonnull align 4 dereferenceable(16) %4) #17
  ret i32 %5
}

; Function Attrs: mustprogress nounwind uwtable
define linkonce_odr noundef double @_ZNK8QCPRange6centerEv(ptr noundef nonnull align 8 dereferenceable(16) %0) #3 comdat align 2 {
  %2 = alloca ptr, align 8
  store ptr %0, ptr %2, align 8
  %3 = load ptr, ptr %2, align 8
  %4 = getelementptr inbounds %class.QCPRange, ptr %3, i32 0, i32 1
  %5 = load double, ptr %4, align 8
  %6 = getelementptr inbounds %class.QCPRange, ptr %3, i32 0, i32 0
  %7 = load double, ptr %6, align 8
  %8 = fadd double %5, %7
  %9 = fmul double %8, 5.000000e-01
  ret double %9
}

; Function Attrs: mustprogress nounwind uwtable
define linkonce_odr noundef i32 @_ZNK11QCPAxisRect5widthEv(ptr noundef nonnull align 8 dereferenceable(432) %0) #3 comdat align 2 {
  %2 = alloca ptr, align 8
  store ptr %0, ptr %2, align 8
  %3 = load ptr, ptr %2, align 8
  %4 = getelementptr inbounds %class.QCPLayoutElement, ptr %3, i32 0, i32 5
  %5 = call noundef i32 @_ZNK5QRect5widthEv(ptr noundef nonnull align 4 dereferenceable(16) %4) #17
  ret i32 %5
}

; Function Attrs: mustprogress nounwind uwtable
define linkonce_odr noundef ptr @_ZNK7QCPAxis8axisRectEv(ptr noundef nonnull align 8 dereferenceable(472) %0) #3 comdat align 2 {
  %2 = alloca ptr, align 8
  store ptr %0, ptr %2, align 8
  %3 = load ptr, ptr %2, align 8
  %4 = getelementptr inbounds %class.QCPAxis, ptr %3, i32 0, i32 2
  %5 = load ptr, ptr %4, align 8
  ret ptr %5
}

; Function Attrs: mustprogress nounwind uwtable
define linkonce_odr { double, double } @_ZNK7QCPAxis5rangeEv(ptr noundef nonnull align 8 dereferenceable(472) %0) #3 comdat align 2 {
  %2 = alloca %class.QCPRange, align 8
  %3 = alloca ptr, align 8
  store ptr %0, ptr %3, align 8
  %4 = load ptr, ptr %3, align 8
  %5 = getelementptr inbounds %class.QCPAxis, ptr %4, i32 0, i32 29
  call void @llvm.memcpy.p0.p0.i64(ptr align 8 %2, ptr align 8 %5, i64 16, i1 false)
  %6 = load { double, double }, ptr %2, align 8
  ret { double, double } %6
}

; Function Attrs: mustprogress uwtable
define void @_ZN17LteRlcGraphDialog9resetAxesEv(ptr noundef nonnull align 8 dereferenceable(268) %0) #0 align 2 {
  %2 = alloca ptr, align 8
  %3 = alloca ptr, align 8
  %4 = alloca double, align 8
  %5 = alloca %class.QCPRange, align 8
  %6 = alloca double, align 8
  %7 = alloca %class.QCPRange, align 8
  store ptr %0, ptr %2, align 8
  %8 = load ptr, ptr %2, align 8
  %9 = getelementptr inbounds %class.LteRlcGraphDialog, ptr %8, i32 0, i32 2
  %10 = load ptr, ptr %9, align 8
  %11 = getelementptr inbounds %class.Ui_LteRlcGraphDialog, ptr %10, i32 0, i32 22
  %12 = load ptr, ptr %11, align 8
  store ptr %12, ptr %3, align 8
  store double 1.000000e+01, ptr %4, align 8
  %13 = load ptr, ptr %3, align 8
  call void @_ZN11QCustomPlot11rescaleAxesEb(ptr noundef nonnull align 8 dereferenceable(513) %13, i1 noundef zeroext true)
  %14 = load ptr, ptr %3, align 8
  %15 = getelementptr inbounds %class.QCustomPlot, ptr %14, i32 0, i32 1
  %16 = load ptr, ptr %15, align 8
  %17 = call { double, double } @_ZNK7QCPAxis5rangeEv(ptr noundef nonnull align 8 dereferenceable(472) %16)
  %18 = getelementptr inbounds { double, double }, ptr %5, i32 0, i32 0
  %19 = extractvalue { double, double } %17, 0
  store double %19, ptr %18, align 8
  %20 = getelementptr inbounds { double, double }, ptr %5, i32 0, i32 1
  %21 = extractvalue { double, double } %17, 1
  store double %21, ptr %20, align 8
  %22 = load ptr, ptr %3, align 8
  %23 = getelementptr inbounds %class.QCustomPlot, ptr %22, i32 0, i32 1
  %24 = load ptr, ptr %23, align 8
  %25 = call noundef ptr @_ZNK7QCPAxis8axisRectEv(ptr noundef nonnull align 8 dereferenceable(472) %24)
  %26 = call noundef i32 @_ZNK11QCPAxisRect5widthEv(ptr noundef nonnull align 8 dereferenceable(432) %25)
  %27 = sitofp i32 %26 to double
  store double %27, ptr %6, align 8
  %28 = load ptr, ptr %3, align 8
  %29 = getelementptr inbounds %class.QCustomPlot, ptr %28, i32 0, i32 1
  %30 = load ptr, ptr %29, align 8
  %31 = load double, ptr %6, align 8
  %32 = load double, ptr %4, align 8
  %33 = call double @llvm.fmuladd.f64(double %32, double 2.000000e+00, double %31)
  %34 = load double, ptr %6, align 8
  %35 = fdiv double %33, %34
  %36 = call noundef double @_ZNK8QCPRange6centerEv(ptr noundef nonnull align 8 dereferenceable(16) %5)
  call void @_ZN7QCPAxis10scaleRangeEdd(ptr noundef nonnull align 8 dereferenceable(472) %30, double noundef %35, double noundef %36)
  %37 = load ptr, ptr %3, align 8
  %38 = getelementptr inbounds %class.QCustomPlot, ptr %37, i32 0, i32 2
  %39 = load ptr, ptr %38, align 8
  %40 = call noundef ptr @_ZNK7QCPAxis8axisRectEv(ptr noundef nonnull align 8 dereferenceable(472) %39)
  %41 = call noundef i32 @_ZNK11QCPAxisRect6heightEv(ptr noundef nonnull align 8 dereferenceable(432) %40)
  %42 = sitofp i32 %41 to double
  store double %42, ptr %6, align 8
  %43 = load ptr, ptr %3, align 8
  %44 = getelementptr inbounds %class.QCustomPlot, ptr %43, i32 0, i32 2
  %45 = load ptr, ptr %44, align 8
  %46 = load double, ptr %6, align 8
  %47 = load double, ptr %4, align 8
  %48 = call double @llvm.fmuladd.f64(double %47, double 2.000000e+00, double %46)
  %49 = load double, ptr %6, align 8
  %50 = fdiv double %48, %49
  %51 = load ptr, ptr %3, align 8
  %52 = getelementptr inbounds %class.QCustomPlot, ptr %51, i32 0, i32 2
  %53 = load ptr, ptr %52, align 8
  %54 = call { double, double } @_ZNK7QCPAxis5rangeEv(ptr noundef nonnull align 8 dereferenceable(472) %53)
  %55 = getelementptr inbounds { double, double }, ptr %7, i32 0, i32 0
  %56 = extractvalue { double, double } %54, 0
  store double %56, ptr %55, align 8
  %57 = getelementptr inbounds { double, double }, ptr %7, i32 0, i32 1
  %58 = extractvalue { double, double } %54, 1
  store double %58, ptr %57, align 8
  %59 = call noundef double @_ZNK8QCPRange6centerEv(ptr noundef nonnull align 8 dereferenceable(16) %7)
  call void @_ZN7QCPAxis10scaleRangeEdd(ptr noundef nonnull align 8 dereferenceable(472) %45, double noundef %50, double noundef %59)
  %60 = load ptr, ptr %3, align 8
  call void @_ZN11QCustomPlot6replotENS_15RefreshPriorityE(ptr noundef nonnull align 8 dereferenceable(513) %60, i32 noundef 2)
  ret void
}