; Function Attrs: mustprogress uwtable
define void @_ZN17LteRlcGraphDialog9resetAxesEv(ptr nocapture noundef nonnull readonly align 8 dereferenceable(268) %0) local_unnamed_addr #0 align 2 {
  %2 = getelementptr inbounds i8, ptr %0, i64 136
  %3 = load ptr, ptr %2, align 8
  %4 = getelementptr inbounds i8, ptr %3, i64 176
  %5 = load ptr, ptr %4, align 8
  tail call void @_ZN11QCustomPlot11rescaleAxesEb(ptr noundef nonnull align 8 dereferenceable(513) %5, i1 noundef zeroext true)
  %6 = getelementptr inbounds i8, ptr %5, i64 40
  %7 = load ptr, ptr %6, align 8
  %8 = getelementptr inbounds i8, ptr %7, i64 304
  %.sroa.0.0.copyload.i = load double, ptr %8, align 8
  %.sroa.2.0..sroa_idx.i = getelementptr inbounds i8, ptr %7, i64 312
  %.sroa.2.0.copyload.i = load double, ptr %.sroa.2.0..sroa_idx.i, align 8
  %9 = getelementptr inbounds i8, ptr %7, i64 64
  %10 = load ptr, ptr %9, align 8
  %11 = getelementptr inbounds i8, ptr %10, i64 92
  %12 = getelementptr inbounds i8, ptr %10, i64 100
  %13 = load i32, ptr %12, align 4
  %14 = load i32, ptr %11, align 4
  %15 = add i32 %13, 1
  %16 = sub i32 %15, %14
  %17 = sitofp i32 %16 to double
  %18 = fadd double %17, 2.000000e+01
  %19 = fdiv double %18, %17
  %20 = fadd double %.sroa.0.0.copyload.i, %.sroa.2.0.copyload.i
  %21 = fmul double %20, 5.000000e-01
  tail call void @_ZN7QCPAxis10scaleRangeEdd(ptr noundef nonnull align 8 dereferenceable(472) %7, double noundef %19, double noundef %21)
  %22 = getelementptr inbounds i8, ptr %5, i64 48
  %23 = load ptr, ptr %22, align 8
  %24 = getelementptr inbounds i8, ptr %23, i64 64
  %25 = load ptr, ptr %24, align 8
  %26 = getelementptr inbounds i8, ptr %25, i64 104
  %27 = load i32, ptr %26, align 4
  %28 = getelementptr inbounds i8, ptr %25, i64 96
  %29 = load i32, ptr %28, align 4
  %30 = add i32 %27, 1
  %31 = sub i32 %30, %29
  %32 = sitofp i32 %31 to double
  %33 = fadd double %32, 2.000000e+01
  %34 = fdiv double %33, %32
  %35 = getelementptr inbounds i8, ptr %23, i64 304
  %.sroa.0.0.copyload.i15 = load double, ptr %35, align 8
  %.sroa.2.0..sroa_idx.i16 = getelementptr inbounds i8, ptr %23, i64 312
  %.sroa.2.0.copyload.i17 = load double, ptr %.sroa.2.0..sroa_idx.i16, align 8
  %36 = fadd double %.sroa.0.0.copyload.i15, %.sroa.2.0.copyload.i17
  %37 = fmul double %36, 5.000000e-01
  tail call void @_ZN7QCPAxis10scaleRangeEdd(ptr noundef nonnull align 8 dereferenceable(472) %23, double noundef %34, double noundef %37)
  tail call void @_ZN11QCustomPlot6replotENS_15RefreshPriorityE(ptr noundef nonnull align 8 dereferenceable(513) %5, i32 noundef 2)
  ret void
}